(iRuleTable
RuleTable
p1
(dp2
S'_resolver'
p3
NsS'_parser'
p4
S'RegexParser'
p5
sS'_mutex'
p6
NsS'_ruleSet'
p7
(lp8
(iRuleTable
RuleEntry
p9
(dp10
S'enabled'
p11
I01
sS'rule'
p12
(iRule
Rule
p13
(dp14
S'_matchAction'
p15
S'pass'
p16
sS'_type'
p17
(dp18
S'terminal'
p19
I01
sS'value'
p20
I01
ssS'_errorMsg'
p21
S'Memory is less than 128 MB or exceeds 1024MB'
p22
sS'_description'
p23
NsS'_condition'
p24
(iCondition
Condition
p25
(dp26
S'_leftOperand'
p27
(iCondition
Condition
p28
(dp29
g27
S'vm.RAM'
p30
sS'_negate'
p31
I00
sS'_operator'
p32
S'>'
sS'_rightOperand'
p33
S'128'
p34
sbsg31
I00
sg32
S'&&'
p35
sg33
(iCondition
Condition
p36
(dp37
g27
S'vm.RAM'
p38
sg31
I00
sg32
S'<'
sg33
S'1024'
p39
sbsbsS'_uuid'
p40
NsbsbasS'uuid'
p41
NsS'_persist'
p42
I01
sS'_policy'
p43
I00
sS'_mappings'
p44
(dp45
S'vm.OS'
p46
S"metaObj['actions'][0]['vm']['OS']"
p47
sS'log'
p48
S'MyPolicyEngine.log(metaObj)'
p49
sS'CA'
p50
S"credentials['CA']"
p51
sS'vm.Name'
p52
S"['actions'][0]['vm']['Name']"
p53
sS'vm.HDD'
p54
S"metaObj['actions'][0]['vm']['HDD']"
p55
sS'vm.RAM'
p56
S"metaObj['actions'][0]['vm']['RAM']"
p57
ssS'_persistenceBackendParameters'
p58
(dp59
S'fileName'
p60
S'database/myPolicyEngine.db'
p61
ssS'_persistenceBackend'
p62
S'RAWFile'
p63
sS'name'
p64
S'MyPolicyEngine'
p65
sb.