(iRuleTable
RuleTable
p1
(dp2
S'_resolver'
p3
NsS'_parser'
p4
S'RegexParser'
p5
sS'_mutex'
p6
NsS'_ruleSet'
p7
(lp8
(iRuleTable
RuleEntry
p9
(dp10
S'enabled'
p11
I01
sS'rule'
p12
(iRule
Rule
p13
(dp14
S'_matchAction'
p15
S'pass'
p16
sS'_type'
p17
(dp18
S'terminal'
p19
I01
sS'value'
p20
I00
ssS'_errorMsg'
p21
S'Memory is more than 128 MB'
p22
sS'_description'
p23
NsS'_condition'
p24
(iCondition
Condition
p25
(dp26
S'_leftOperand'
p27
S'vm.RAM'
p28
sS'_negate'
p29
I00
sS'_operator'
p30
S'>'
sS'_rightOperand'
p31
S'128'
p32
sbsS'_uuid'
p33
NsbsbasS'uuid'
p34
NsS'_persist'
p35
I01
sS'_policy'
p36
I00
sS'_mappings'
p37
(dp38
S'vm.Name'
p39
S"metaObj['Name']"
p40
sS'vm.MAC'
p41
S"metaObj['MAC']"
p42
sS'vm.Version'
p43
S"metaObj['Version']"
p44
sS'vm.OS'
p45
S"metaObj['OS']"
p46
sS'vm.IP'
p47
S"metaObj['IP']"
p48
sS'vm.HDD'
p49
S"metaObj['HDD']"
p50
sS'CA'
p51
S"credentials['CA']"
p52
sS'vm.RAM'
p53
S"metaObj['RAM']"
p54
sS'pass'
p55
S'print "HOLIS"'
p56
ssS'_persistenceBackendParameters'
p57
(dp58
S'fileName'
p59
S'database/myPolicyEngine.db'
p60
ssS'_persistenceBackend'
p61
S'RAWFile'
p62
sS'name'
p63
S'MyPolicyEngine'
p64
sb.